target datalayout = "e-m:e-p270:32:32-p271:32:32-p272:64:64-i64:64-i128:128-f80:128-n8:16:32:64-S128"
target triple = "x86_64-pc-linux-gnu"

%"class.icu_77::SortKeyByteSink" = type <{ %"class.icu_77::ByteSink", ptr, i32, i32, i32, [4 x i8] }>
%"class.icu_77::ByteSink" = type { ptr }

; Function Attrs: mustprogress uwtable
define void @_ZN6icu_7715SortKeyByteSink6AppendEPKci(ptr noundef nonnull align 8 dereferenceable(28) %0, ptr noundef %1, i32 noundef %2) unnamed_addr #1 align 2 {
  %4 = alloca ptr, align 8
  %5 = alloca ptr, align 8
  %6 = alloca i32, align 4
  %7 = alloca i32, align 4
  %8 = alloca i32, align 4
  %9 = alloca i32, align 4
  %10 = alloca i32, align 4
  store ptr %0, ptr %4, align 8, !tbaa !23
  store ptr %1, ptr %5, align 8, !tbaa !17
  store i32 %2, ptr %6, align 4, !tbaa !14
  %11 = load ptr, ptr %4, align 8
  %12 = load i32, ptr %6, align 4, !tbaa !14
  %13 = icmp sle i32 %12, 0
  br i1 %13, label %17, label %14

14:                                               ; preds = %3
  %15 = load ptr, ptr %5, align 8, !tbaa !17
  %16 = icmp eq ptr %15, null
  br i1 %16, label %17, label %18

17:                                               ; preds = %14, %3
  br label %90

18:                                               ; preds = %14
  %19 = getelementptr inbounds nuw %"class.icu_77::SortKeyByteSink", ptr %11, i32 0, i32 4
  %20 = load i32, ptr %19, align 8, !tbaa !25
  %21 = icmp sgt i32 %20, 0
  br i1 %21, label %22, label %45

22:                                               ; preds = %18
  call void @llvm.lifetime.start.p0(i64 4, ptr %7) #11
  %23 = getelementptr inbounds nuw %"class.icu_77::SortKeyByteSink", ptr %11, i32 0, i32 4
  %24 = load i32, ptr %23, align 8, !tbaa !25
  %25 = load i32, ptr %6, align 4, !tbaa !14
  %26 = sub nsw i32 %24, %25
  store i32 %26, ptr %7, align 4, !tbaa !14
  %27 = load i32, ptr %7, align 4, !tbaa !14
  %28 = icmp sge i32 %27, 0
  br i1 %28, label %29, label %32

29:                                               ; preds = %22
  %30 = load i32, ptr %7, align 4, !tbaa !14
  %31 = getelementptr inbounds nuw %"class.icu_77::SortKeyByteSink", ptr %11, i32 0, i32 4
  store i32 %30, ptr %31, align 8, !tbaa !25
  store i32 1, ptr %8, align 4
  br label %42

32:                                               ; preds = %22
  %33 = getelementptr inbounds nuw %"class.icu_77::SortKeyByteSink", ptr %11, i32 0, i32 4
  %34 = load i32, ptr %33, align 8, !tbaa !25
  %35 = load ptr, ptr %5, align 8, !tbaa !17
  %36 = sext i32 %34 to i64
  %37 = getelementptr inbounds i8, ptr %35, i64 %36
  store ptr %37, ptr %5, align 8, !tbaa !17
  %38 = load i32, ptr %7, align 4, !tbaa !14
  %39 = sub nsw i32 0, %38
  store i32 %39, ptr %6, align 4, !tbaa !14
  %40 = getelementptr inbounds nuw %"class.icu_77::SortKeyByteSink", ptr %11, i32 0, i32 4
  store i32 0, ptr %40, align 8, !tbaa !25
  br label %41

41:                                               ; preds = %32
  store i32 0, ptr %8, align 4
  br label %42

42:                                               ; preds = %41, %29
  call void @llvm.lifetime.end.p0(i64 4, ptr %7) #11
  %43 = load i32, ptr %8, align 4
  switch i32 %43, label %91 [
    i32 0, label %44
    i32 1, label %90
  ]

44:                                               ; preds = %42
  br label %45

45:                                               ; preds = %44, %18
  call void @llvm.lifetime.start.p0(i64 4, ptr %9) #11
  %46 = getelementptr inbounds nuw %"class.icu_77::SortKeyByteSink", ptr %11, i32 0, i32 3
  %47 = load i32, ptr %46, align 4, !tbaa !28
  store i32 %47, ptr %9, align 4, !tbaa !14
  %48 = load i32, ptr %6, align 4, !tbaa !14
  %49 = getelementptr inbounds nuw %"class.icu_77::SortKeyByteSink", ptr %11, i32 0, i32 3
  %50 = load i32, ptr %49, align 4, !tbaa !28
  %51 = add nsw i32 %50, %48
  store i32 %51, ptr %49, align 4, !tbaa !28
  %52 = getelementptr inbounds nuw %"class.icu_77::SortKeyByteSink", ptr %11, i32 0, i32 1
  %53 = load ptr, ptr %52, align 8, !tbaa !29
  %54 = load i32, ptr %9, align 4, !tbaa !14
  %55 = sext i32 %54 to i64
  %56 = getelementptr inbounds i8, ptr %53, i64 %55
  %57 = load ptr, ptr %5, align 8, !tbaa !17
  %58 = icmp eq ptr %56, %57
  br i1 %58, label %59, label %60

59:                                               ; preds = %45
  store i32 1, ptr %8, align 4
  br label %88

60:                                               ; preds = %45
  call void @llvm.lifetime.start.p0(i64 4, ptr %10) #11
  %61 = getelementptr inbounds nuw %"class.icu_77::SortKeyByteSink", ptr %11, i32 0, i32 2
  %62 = load i32, ptr %61, align 8, !tbaa !30
  %63 = load i32, ptr %9, align 4, !tbaa !14
  %64 = sub nsw i32 %62, %63
  store i32 %64, ptr %10, align 4, !tbaa !14
  %65 = load i32, ptr %6, align 4, !tbaa !14
  %66 = load i32, ptr %10, align 4, !tbaa !14
  %67 = icmp sle i32 %65, %66
  br i1 %67, label %68, label %80

68:                                               ; preds = %60
  br label %69

69:                                               ; preds = %68
  %70 = getelementptr inbounds nuw %"class.icu_77::SortKeyByteSink", ptr %11, i32 0, i32 1
  %71 = load ptr, ptr %70, align 8, !tbaa !29
  %72 = load i32, ptr %9, align 4, !tbaa !14
  %73 = sext i32 %72 to i64
  %74 = getelementptr inbounds i8, ptr %71, i64 %73
  %75 = load ptr, ptr %5, align 8, !tbaa !17
  %76 = load i32, ptr %6, align 4, !tbaa !14
  %77 = sext i32 %76 to i64
  call void @llvm.memcpy.p0.p0.i64(ptr align 1 %74, ptr align 1 %75, i64 %77, i1 false)
  br label %78

78:                                               ; preds = %69
  br label %79

79:                                               ; preds = %78
  br label %87

80:                                               ; preds = %60
  %81 = load ptr, ptr %5, align 8, !tbaa !17
  %82 = load i32, ptr %6, align 4, !tbaa !14
  %83 = load i32, ptr %9, align 4, !tbaa !14
  %84 = load ptr, ptr %11, align 8, !tbaa !31
  %85 = getelementptr inbounds ptr, ptr %84, i64 5
  %86 = load ptr, ptr %85, align 8
  call void %86(ptr noundef nonnull align 8 dereferenceable(28) %11, ptr noundef %81, i32 noundef %82, i32 noundef %83)
  br label %87

87:                                               ; preds = %80, %79
  call void @llvm.lifetime.end.p0(i64 4, ptr %10) #11
  store i32 0, ptr %8, align 4
  br label %88

88:                                               ; preds = %87, %59
  call void @llvm.lifetime.end.p0(i64 4, ptr %9) #11
  %89 = load i32, ptr %8, align 4
  switch i32 %89, label %91 [
    i32 0, label %90
    i32 1, label %90
  ]

90:                                               ; preds = %17, %42, %88, %88
  ret void

91:                                               ; preds = %88, %42
  unreachable
}