; Function Attrs: mustprogress uwtable
define void @_ZN6icu_7715SortKeyByteSink6AppendEPKci(ptr noundef nonnull align 8 dereferenceable(28) %0, ptr noundef %1, i32 noundef %2) unnamed_addr #1 align 2 {
  %4 = icmp slt i32 %2, 1
  %5 = icmp eq ptr %1, null
  %or.cond = or i1 %5, %4
  br i1 %or.cond, label %35, label %6

6:                                                ; preds = %3
  %7 = getelementptr inbounds nuw i8, ptr %0, i64 24
  %8 = load i32, ptr %7, align 8, !tbaa !15
  %9 = icmp sgt i32 %8, 0
  br i1 %9, label %10, label %16

10:                                               ; preds = %6
  %11 = sub nsw i32 %8, %2
  %12 = icmp slt i32 %11, 0
  %13 = zext nneg i32 %8 to i64
  %14 = getelementptr inbounds nuw i8, ptr %1, i64 %13
  %15 = sub nsw i32 0, %11
  %storemerge = tail call i32 @llvm.smax.i32(i32 %11, i32 0)
  store i32 %storemerge, ptr %7, align 8, !tbaa !15
  br i1 %12, label %16, label %35

16:                                               ; preds = %10, %6
  %.021 = phi i32 [ %15, %10 ], [ %2, %6 ]
  %.0 = phi ptr [ %14, %10 ], [ %1, %6 ]
  %17 = getelementptr inbounds nuw i8, ptr %0, i64 20
  %18 = load i32, ptr %17, align 4, !tbaa !18
  %19 = add nsw i32 %18, %.021
  store i32 %19, ptr %17, align 4, !tbaa !18
  %20 = getelementptr inbounds nuw i8, ptr %0, i64 8
  %21 = load ptr, ptr %20, align 8, !tbaa !19
  %22 = sext i32 %18 to i64
  %23 = getelementptr inbounds i8, ptr %21, i64 %22
  %24 = icmp eq ptr %23, %.0
  br i1 %24, label %35, label %25

25:                                               ; preds = %16
  %26 = getelementptr inbounds nuw i8, ptr %0, i64 16
  %27 = load i32, ptr %26, align 8, !tbaa !20
  %28 = sub nsw i32 %27, %18
  %.not = icmp sgt i32 %.021, %28
  br i1 %.not, label %31, label %29

29:                                               ; preds = %25
  %30 = zext nneg i32 %.021 to i64
  tail call void @llvm.memcpy.p0.p0.i64(ptr align 1 %23, ptr align 1 %.0, i64 %30, i1 false)
  br label %35

31:                                               ; preds = %25
  %32 = load ptr, ptr %0, align 8, !tbaa !21
  %33 = getelementptr inbounds nuw i8, ptr %32, i64 40
  %34 = load ptr, ptr %33, align 8
  tail call void %34(ptr noundef nonnull align 8 dereferenceable(28) %0, ptr noundef %.0, i32 noundef %.021, i32 noundef %18)
  br label %35

35:                                               ; preds = %10, %16, %31, %29, %3
  ret void
}